ccopy_reg
_reconstructor
p0
(csklearn.linear_model.base
LinearRegression
p1
c__builtin__
object
p2
Ntp3
Rp4
(dp5
S'normalize'
p6
I00
sS'n_jobs'
p7
I-1
sS'residues_'
p8
cnumpy.core.multiarray
scalar
p9
(cnumpy
dtype
p10
(S'f8'
p11
I0
I1
tp12
Rp13
(I3
S'<'
p14
NNNI-1
I-1
I0
tp15
bS'\x9c@\xe3}\xe9zCA'
p16
tp17
Rp18
sS'fit_intercept'
p19
I01
sS'coef_'
p20
cnumpy.core.multiarray
_reconstruct
p21
(cnumpy
ndarray
p22
(I0
tp23
S'b'
p24
tp25
Rp26
(I1
(I4
tp27
g13
I00
S'\x90\xd2v\xc6\xdbye@`f\x06\xa4\xc8\x97\xf6\xbf\x80\\\xd6\xb7\x99\xe1\xed\xbf\x10\x1e\xe8\x1d\xc25\x0f\xc0'
p28
tp29
bsS'copy_X'
p30
I01
sS'rank_'
p31
I4
sS'intercept_'
p32
g9
(g13
S'\x93E\xc1b\xcdGu@'
p33
tp34
Rp35
sS'singular_'
p36
g21
(g22
(I0
tp37
g24
tp38
Rp39
(I1
(I4
tp40
g13
I00
S'\xcb\x1c\xcd\x92"\x02Q@\x1c\x9ce\xe9\xb2\xe3K@\x03\xaeG9\x0b\xf2?@\xc1\xf5\xd5"Xv5@'
p41
tp42
bsb.